; Function Attrs: mustprogress uwtable
define hidden void @_ZN6google24glog_internal_namespace_26InitGoogleLoggingUtilitiesEPKc(ptr noundef %0) local_unnamed_addr #0 personality ptr @__gxx_personality_v0 {
  %2 = alloca %"class.google::LogMessageFatal", align 8
  %3 = load ptr, ptr @_ZN6googleL31g_program_invocation_short_nameE, align 8, !tbaa !39
  %.not = icmp eq ptr %3, null
  br i1 %.not, label %.critedge, label %4, !prof !41

4:                                                ; preds = %1
  call void @llvm.lifetime.start.p0(i64 96, ptr nonnull %2) #26
  call void @_ZN6google15LogMessageFatalC1EPKci(ptr noundef nonnull align 8 dereferenceable(96) %2, ptr noundef nonnull @.str.3, i32 noundef 300)
  %5 = invoke noundef nonnull align 8 dereferenceable(8) ptr @_ZN6google10LogMessage6streamEv(ptr noundef nonnull align 8 dereferenceable(96) %2)
          to label %6 unwind label %9

6:                                                ; preds = %4
  %7 = invoke noundef nonnull align 8 dereferenceable(8) ptr @_ZSt16__ostream_insertIcSt11char_traitsIcEERSt13basic_ostreamIT_T0_ES6_PKS3_l(ptr noundef nonnull align 8 dereferenceable(8) %5, ptr noundef nonnull @.str.4, i64 noundef 44)
          to label %_ZStlsISt11char_traitsIcEERSt13basic_ostreamIcT_ES5_PKc.exit unwind label %9

_ZStlsISt11char_traitsIcEERSt13basic_ostreamIcT_ES5_PKc.exit: ; preds = %6
  %8 = invoke noundef nonnull align 8 dereferenceable(8) ptr @_ZSt16__ostream_insertIcSt11char_traitsIcEERSt13basic_ostreamIT_T0_ES6_PKS3_l(ptr noundef nonnull align 8 dereferenceable(8) %5, ptr noundef nonnull @.str.5, i64 noundef 37)
          to label %_ZStlsISt11char_traitsIcEERSt13basic_ostreamIcT_ES5_PKc.exit7 unwind label %9

_ZStlsISt11char_traitsIcEERSt13basic_ostreamIcT_ES5_PKc.exit7: ; preds = %_ZStlsISt11char_traitsIcEERSt13basic_ostreamIcT_ES5_PKc.exit
  call void @_ZN6google15LogMessageFatalD1Ev(ptr noundef nonnull align 8 dereferenceable(96) %2) #28
  unreachable

9:                                                ; preds = %_ZStlsISt11char_traitsIcEERSt13basic_ostreamIcT_ES5_PKc.exit, %6, %4
  %10 = landingpad { ptr, i32 }
          cleanup
  invoke void @_ZN6google15LogMessageFatalD1Ev(ptr noundef nonnull align 8 dereferenceable(96) %2) #28
          to label %15 unwind label %16

.critedge:                                        ; preds = %1
  %11 = tail call noundef ptr @strrchr(ptr noundef nonnull readonly dereferenceable(1) %0, i32 noundef 47) #27
  %.not.i = icmp eq ptr %11, null
  %12 = getelementptr inbounds nuw i8, ptr %11, i64 1
  %13 = select i1 %.not.i, ptr %0, ptr %12
  store ptr %13, ptr @_ZN6googleL31g_program_invocation_short_nameE, align 8, !tbaa !39
  %14 = tail call noundef ptr @_ZN6google22InstallFailureFunctionEPFvvE(ptr noundef nonnull @_ZN6googleL21DumpStackTraceAndExitEv)
  ret void

15:                                               ; preds = %9
  unreachable

16:                                               ; preds = %9
  %17 = landingpad { ptr, i32 }
          catch ptr null
  %18 = extractvalue { ptr, i32 } %17, 0
  call void @__clang_call_terminate(ptr %18) #29
  unreachable
}